
code.elf:     file format elf32-littleriscv


Disassembly of section .text:

00000000 <main>:
   0:	fd010113          	addi	sp,sp,-48
   4:	02112623          	sw	ra,44(sp)
   8:	02812423          	sw	s0,40(sp)
   c:	03010413          	addi	s0,sp,48
  10:	00700793          	li	a5,7
  14:	fef42023          	sw	a5,-32(s0)
  18:	fe042623          	sw	zero,-20(s0)
  1c:	00100793          	li	a5,1
  20:	fef42423          	sw	a5,-24(s0)
  24:	fe042703          	lw	a4,-32(s0)
  28:	00100793          	li	a5,1
  2c:	00e7c663          	blt	a5,a4,38 <.L2>
  30:	fe042783          	lw	a5,-32(s0)
  34:	04c0006f          	j	80 <.L3>

00000038 <.L2>:
  38:	00200793          	li	a5,2
  3c:	fef42223          	sw	a5,-28(s0)
  40:	0300006f          	j	70 <.L4>

00000044 <.L5>:
  44:	fe842703          	lw	a4,-24(s0)
  48:	fec42783          	lw	a5,-20(s0)
  4c:	00f707b3          	add	a5,a4,a5
  50:	fcf42e23          	sw	a5,-36(s0)
  54:	fe842783          	lw	a5,-24(s0)
  58:	fef42623          	sw	a5,-20(s0)
  5c:	fdc42783          	lw	a5,-36(s0)
  60:	fef42423          	sw	a5,-24(s0)
  64:	fe442783          	lw	a5,-28(s0)
  68:	00178793          	addi	a5,a5,1
  6c:	fef42223          	sw	a5,-28(s0)

00000070 <.L4>:
  70:	fe442703          	lw	a4,-28(s0)
  74:	fe042783          	lw	a5,-32(s0)
  78:	fce7d6e3          	bge	a5,a4,44 <.L5>
  7c:	fe842783          	lw	a5,-24(s0)

00000080 <.L3>:
  80:	00078513          	mv	a0,a5
  84:	02c12083          	lw	ra,44(sp)
  88:	02812403          	lw	s0,40(sp)
  8c:	03010113          	addi	sp,sp,48
  90:	00008067          	ret
